target datalayout = "e-m:e-p270:32:32-p271:32:32-p272:64:64-i64:64-i128:128-f80:128-n8:16:32:64-S128"
target triple = "x86_64-pc-linux-gnu"

%struct.compressionParameters = type { i32, ptr, i32, ptr, ptr, ptr, ptr, ptr, ptr, ptr, ptr }

; Function Attrs: nounwind uwtable
define internal void @LZ4_compressInitStream(ptr noundef %0) #0 {
  %2 = alloca ptr, align 8
  store ptr %0, ptr %2, align 8, !tbaa !65
  %3 = call ptr @LZ4_createStream()
  %4 = load ptr, ptr %2, align 8, !tbaa !65
  %5 = getelementptr inbounds nuw %struct.compressionParameters, ptr %4, i32 0, i32 3
  store ptr %3, ptr %5, align 8, !tbaa !72
  %6 = call ptr @LZ4_createStream()
  %7 = load ptr, ptr %2, align 8, !tbaa !65
  %8 = getelementptr inbounds nuw %struct.compressionParameters, ptr %7, i32 0, i32 4
  store ptr %6, ptr %8, align 8, !tbaa !73
  %9 = load ptr, ptr %2, align 8, !tbaa !65
  %10 = getelementptr inbounds nuw %struct.compressionParameters, ptr %9, i32 0, i32 5
  store ptr null, ptr %10, align 8, !tbaa !74
  %11 = load ptr, ptr %2, align 8, !tbaa !65
  %12 = getelementptr inbounds nuw %struct.compressionParameters, ptr %11, i32 0, i32 6
  store ptr null, ptr %12, align 8, !tbaa !75
  %13 = load ptr, ptr %2, align 8, !tbaa !65
  %14 = getelementptr inbounds nuw %struct.compressionParameters, ptr %13, i32 0, i32 4
  %15 = load ptr, ptr %14, align 8, !tbaa !73
  %16 = load ptr, ptr %2, align 8, !tbaa !65
  %17 = getelementptr inbounds nuw %struct.compressionParameters, ptr %16, i32 0, i32 1
  %18 = load ptr, ptr %17, align 8, !tbaa !68
  %19 = load ptr, ptr %2, align 8, !tbaa !65
  %20 = getelementptr inbounds nuw %struct.compressionParameters, ptr %19, i32 0, i32 2
  %21 = load i32, ptr %20, align 8, !tbaa !69
  %22 = call i32 @LZ4_loadDictSlow(ptr noundef %15, ptr noundef %18, i32 noundef %21)
  ret void
}