; Function Attrs: nounwind uwtable
define internal void @LZ4_compressInitStream(ptr noundef captures(none) initializes((24, 56)) %0) #3 {
  %2 = tail call ptr @LZ4_createStream() #19
  %3 = getelementptr inbounds nuw i8, ptr %0, i64 24
  store ptr %2, ptr %3, align 8, !tbaa !63
  %4 = tail call ptr @LZ4_createStream() #19
  %5 = getelementptr inbounds nuw i8, ptr %0, i64 32
  store ptr %4, ptr %5, align 8, !tbaa !64
  %6 = getelementptr inbounds nuw i8, ptr %0, i64 40
  %7 = getelementptr inbounds nuw i8, ptr %0, i64 8
  tail call void @llvm.memset.p0.i64(ptr noundef nonnull align 8 dereferenceable(16) %6, i8 0, i64 16, i1 false)
  %8 = load ptr, ptr %7, align 8, !tbaa !27
  %9 = getelementptr inbounds nuw i8, ptr %0, i64 16
  %10 = load i32, ptr %9, align 8, !tbaa !28
  %11 = tail call i32 @LZ4_loadDictSlow(ptr noundef %4, ptr noundef %8, i32 noundef %10) #19
  ret void
}